target datalayout = "e-m:e-p270:32:32-p271:32:32-p272:64:64-i64:64-i128:128-f80:128-n8:16:32:64-S128"
target triple = "x86_64-pc-linux-gnu"

; Function Attrs: inlinehint mustprogress nounwind uwtable
define internal noundef i64 @_ZL10lean_unboxP11lean_object(ptr noundef %0) #6 {
  %2 = alloca ptr, align 8
  store ptr %0, ptr %2, align 8, !tbaa !12
  %3 = load ptr, ptr %2, align 8, !tbaa !12
  %4 = ptrtoint ptr %3 to i64
  %5 = lshr i64 %4, 1
  ret i64 %5
}

; Function Attrs: alwaysinline mustprogress nounwind uwtable
define internal noundef zeroext i1 @_ZL14lean_is_scalarP11lean_object(ptr noundef %0) #7 {
  %2 = alloca ptr, align 8
  store ptr %0, ptr %2, align 8, !tbaa !12
  %3 = load ptr, ptr %2, align 8, !tbaa !12
  %4 = ptrtoint ptr %3 to i64
  %5 = and i64 %4, 1
  %6 = icmp eq i64 %5, 1
  ret i1 %6
}

; Function Attrs: mustprogress uwtable
define zeroext i8 @lean_expr_has_loose_bvar(ptr noundef %0, ptr noundef %1) #0 {
  %3 = alloca i8, align 1
  %4 = alloca ptr, align 8
  %5 = alloca ptr, align 8
  store ptr %0, ptr %4, align 8, !tbaa !12
  store ptr %1, ptr %5, align 8, !tbaa !12
  %6 = load ptr, ptr %5, align 8, !tbaa !12
  %7 = call noundef zeroext i1 @_ZL14lean_is_scalarP11lean_object(ptr noundef %6)
  br i1 %7, label %9, label %8

8:                                                ; preds = %2
  store i8 0, ptr %3, align 1
  br label %15

9:                                                ; preds = %2
  %10 = load ptr, ptr %5, align 8, !tbaa !12
  %11 = call noundef i64 @_ZL10lean_unboxP11lean_object(ptr noundef %10)
  %12 = trunc i64 %11 to i32
  %13 = call noundef zeroext i1 @_ZN4lean14has_loose_bvarERKNS_4exprEj(ptr noundef nonnull align 8 dereferenceable(8) %4, i32 noundef %12)
  %14 = zext i1 %13 to i8
  store i8 %14, ptr %3, align 1
  br label %15

15:                                               ; preds = %9, %8
  %16 = load i8, ptr %3, align 1
  ret i8 %16
}