; Function Attrs: mustprogress uwtable
define zeroext range(i8 0, 2) i8 @lean_expr_has_loose_bvar(ptr noundef %0, ptr noundef %1) local_unnamed_addr #0 {
  %3 = alloca ptr, align 8
  store ptr %0, ptr %3, align 8, !tbaa !3
  %4 = ptrtoint ptr %1 to i64
  %5 = and i64 %4, 1
  %.not = icmp eq i64 %5, 0
  br i1 %.not, label %11, label %6

6:                                                ; preds = %2
  %7 = lshr i64 %4, 1
  %8 = trunc i64 %7 to i32
  %9 = call noundef zeroext i1 @_ZN4lean14has_loose_bvarERKNS_4exprEj(ptr noundef nonnull align 8 dereferenceable(8) %3, i32 noundef %8)
  %10 = zext i1 %9 to i8
  br label %11

11:                                               ; preds = %2, %6
  %.0 = phi i8 [ %10, %6 ], [ 0, %2 ]
  ret i8 %.0
}